target datalayout = "e-m:e-p270:32:32-p271:32:32-p272:64:64-i64:64-i128:128-f80:128-n8:16:32:64-S128"
target triple = "x86_64-pc-linux-gnu"

%class.anon = type { i8 }
%class.anon.0 = type { i8 }
%"class.gmx::AnalysisDataFrameAverager" = type <{ %"class.std::vector", i8, [7 x i8] }>
%"class.std::vector" = type { %"struct.std::_Vector_base" }
%"struct.std::_Vector_base" = type { %"struct.std::_Vector_base<gmx::AnalysisDataFrameAverager::AverageItem, std::allocator<gmx::AnalysisDataFrameAverager::AverageItem>>::_Vector_impl" }
%"struct.std::_Vector_base<gmx::AnalysisDataFrameAverager::AverageItem, std::allocator<gmx::AnalysisDataFrameAverager::AverageItem>>::_Vector_impl" = type { %"struct.std::_Vector_base<gmx::AnalysisDataFrameAverager::AverageItem, std::allocator<gmx::AnalysisDataFrameAverager::AverageItem>>::_Vector_impl_data" }
%"struct.std::_Vector_base<gmx::AnalysisDataFrameAverager::AverageItem, std::allocator<gmx::AnalysisDataFrameAverager::AverageItem>>::_Vector_impl_data" = type { ptr, ptr, ptr }
%"class.__gnu_cxx::__normal_iterator" = type { ptr }
%"struct.gmx::AnalysisDataFrameAverager::AverageItem" = type <{ double, double, i32, [4 x i8] }>

@.str = private unnamed_addr constant [17 x i8] c"columnCount >= 0\00", align 1
@.str.1 = private unnamed_addr constant [21 x i8] c"Invalid column count\00", align 1
@"__PRETTY_FUNCTION__._ZZN3gmx25AnalysisDataFrameAverager14setColumnCountEiENK3$_0clEv" = private unnamed_addr constant [96 x i8] c"auto gmx::AnalysisDataFrameAverager::setColumnCount(int)::(anonymous class)::operator()() const\00", align 1
@.str.2 = private unnamed_addr constant [144 x i8] c"generated/home/dtcxzyw/WorkSpace/Projects/compilers/llvm-opt-benchmark/bench/gromacs/gromacs/src/gromacs/analysisdata/modules/frameaverager.cpp\00", align 1
@.str.3 = private unnamed_addr constant [16 x i8] c"values_.empty()\00", align 1
@.str.4 = private unnamed_addr constant [33 x i8] c"Cannot initialize multiple times\00", align 1

; Function Attrs: mustprogress nounwind uwtable
define linkonce_odr void @_ZNSt12_Destroy_auxILb1EE9__destroyIPN3gmx25AnalysisDataFrameAverager11AverageItemEEEvT_S6_(ptr noundef %0, ptr noundef %1) #1 comdat align 2 {
  %3 = alloca ptr, align 8
  %4 = alloca ptr, align 8
  store ptr %0, ptr %3, align 8
  store ptr %1, ptr %4, align 8
  ret void
}

; Function Attrs: mustprogress uwtable
define linkonce_odr void @_ZSt8_DestroyIPN3gmx25AnalysisDataFrameAverager11AverageItemEEvT_S4_(ptr noundef %0, ptr noundef %1) #0 comdat {
  %3 = alloca ptr, align 8
  %4 = alloca ptr, align 8
  store ptr %0, ptr %3, align 8
  store ptr %1, ptr %4, align 8
  %5 = load ptr, ptr %3, align 8
  %6 = load ptr, ptr %4, align 8
  call void @_ZNSt12_Destroy_auxILb1EE9__destroyIPN3gmx25AnalysisDataFrameAverager11AverageItemEEEvT_S6_(ptr noundef %5, ptr noundef %6)
  ret void
}

; Function Attrs: noreturn nounwind uwtable
define linkonce_odr hidden void @__clang_call_terminate(ptr noundef %0) #3 comdat {
  %2 = call ptr @__cxa_begin_catch(ptr %0) #9
  call void @_ZSt9terminatev() #11
  unreachable
}

; Function Attrs: mustprogress uwtable
define linkonce_odr void @_ZSt8_DestroyIPN3gmx25AnalysisDataFrameAverager11AverageItemES2_EvT_S4_RSaIT0_E(ptr noundef %0, ptr noundef %1, ptr noundef nonnull align 1 dereferenceable(1) %2) #0 comdat {
  %4 = alloca ptr, align 8
  %5 = alloca ptr, align 8
  %6 = alloca ptr, align 8
  store ptr %0, ptr %4, align 8
  store ptr %1, ptr %5, align 8
  store ptr %2, ptr %6, align 8
  %7 = load ptr, ptr %4, align 8
  %8 = load ptr, ptr %5, align 8
  call void @_ZSt8_DestroyIPN3gmx25AnalysisDataFrameAverager11AverageItemEEvT_S4_(ptr noundef %7, ptr noundef %8)
  ret void
}

; Function Attrs: mustprogress nounwind uwtable
define linkonce_odr noundef nonnull align 1 dereferenceable(1) ptr @_ZNSt12_Vector_baseIN3gmx25AnalysisDataFrameAverager11AverageItemESaIS2_EE19_M_get_Tp_allocatorEv(ptr noundef nonnull align 8 dereferenceable(24) %0) #1 comdat align 2 {
  %2 = alloca ptr, align 8
  store ptr %0, ptr %2, align 8
  %3 = load ptr, ptr %2, align 8
  %4 = getelementptr inbounds %"struct.std::_Vector_base", ptr %3, i32 0, i32 0
  ret ptr %4
}

; Function Attrs: mustprogress nounwind uwtable
define linkonce_odr noundef nonnull align 8 dereferenceable(8) ptr @_ZNK9__gnu_cxx17__normal_iteratorIPKN3gmx25AnalysisDataFrameAverager11AverageItemESt6vectorIS3_SaIS3_EEE4baseEv(ptr noundef nonnull align 8 dereferenceable(8) %0) #1 comdat align 2 {
  %2 = alloca ptr, align 8
  store ptr %0, ptr %2, align 8
  %3 = load ptr, ptr %2, align 8
  %4 = getelementptr inbounds %"class.__gnu_cxx::__normal_iterator", ptr %3, i32 0, i32 0
  ret ptr %4
}

; Function Attrs: mustprogress nounwind uwtable
define linkonce_odr void @_ZN9__gnu_cxx17__normal_iteratorIPKN3gmx25AnalysisDataFrameAverager11AverageItemESt6vectorIS3_SaIS3_EEEC2ERKS5_(ptr noundef nonnull align 8 dereferenceable(8) %0, ptr noundef nonnull align 8 dereferenceable(8) %1) unnamed_addr #1 comdat align 2 {
  %3 = alloca ptr, align 8
  %4 = alloca ptr, align 8
  store ptr %0, ptr %3, align 8
  store ptr %1, ptr %4, align 8
  %5 = load ptr, ptr %3, align 8
  %6 = getelementptr inbounds %"class.__gnu_cxx::__normal_iterator", ptr %5, i32 0, i32 0
  %7 = load ptr, ptr %4, align 8
  %8 = load ptr, ptr %7, align 8
  store ptr %8, ptr %6, align 8
  ret void
}

; Function Attrs: mustprogress nounwind uwtable
define linkonce_odr void @_ZNSt6vectorIN3gmx25AnalysisDataFrameAverager11AverageItemESaIS2_EE15_M_erase_at_endEPS2_(ptr noundef nonnull align 8 dereferenceable(24) %0, ptr noundef %1) #1 comdat align 2 personality ptr @__gxx_personality_v0 {
  %3 = alloca ptr, align 8
  %4 = alloca ptr, align 8
  %5 = alloca i64, align 8
  store ptr %0, ptr %3, align 8
  store ptr %1, ptr %4, align 8
  %6 = load ptr, ptr %3, align 8
  %7 = getelementptr inbounds %"struct.std::_Vector_base", ptr %6, i32 0, i32 0
  %8 = getelementptr inbounds %"struct.std::_Vector_base<gmx::AnalysisDataFrameAverager::AverageItem, std::allocator<gmx::AnalysisDataFrameAverager::AverageItem>>::_Vector_impl_data", ptr %7, i32 0, i32 1
  %9 = load ptr, ptr %8, align 8
  %10 = load ptr, ptr %4, align 8
  %11 = ptrtoint ptr %9 to i64
  %12 = ptrtoint ptr %10 to i64
  %13 = sub i64 %11, %12
  %14 = sdiv exact i64 %13, 24
  store i64 %14, ptr %5, align 8
  %15 = load i64, ptr %5, align 8
  %16 = icmp ne i64 %15, 0
  br i1 %16, label %17, label %27

17:                                               ; preds = %2
  %18 = load ptr, ptr %4, align 8
  %19 = getelementptr inbounds %"struct.std::_Vector_base", ptr %6, i32 0, i32 0
  %20 = getelementptr inbounds %"struct.std::_Vector_base<gmx::AnalysisDataFrameAverager::AverageItem, std::allocator<gmx::AnalysisDataFrameAverager::AverageItem>>::_Vector_impl_data", ptr %19, i32 0, i32 1
  %21 = load ptr, ptr %20, align 8
  %22 = call noundef nonnull align 1 dereferenceable(1) ptr @_ZNSt12_Vector_baseIN3gmx25AnalysisDataFrameAverager11AverageItemESaIS2_EE19_M_get_Tp_allocatorEv(ptr noundef nonnull align 8 dereferenceable(24) %6) #9
  invoke void @_ZSt8_DestroyIPN3gmx25AnalysisDataFrameAverager11AverageItemES2_EvT_S4_RSaIT0_E(ptr noundef %18, ptr noundef %21, ptr noundef nonnull align 1 dereferenceable(1) %22)
          to label %23 unwind label %28

23:                                               ; preds = %17
  %24 = load ptr, ptr %4, align 8
  %25 = getelementptr inbounds %"struct.std::_Vector_base", ptr %6, i32 0, i32 0
  %26 = getelementptr inbounds %"struct.std::_Vector_base<gmx::AnalysisDataFrameAverager::AverageItem, std::allocator<gmx::AnalysisDataFrameAverager::AverageItem>>::_Vector_impl_data", ptr %25, i32 0, i32 1
  store ptr %24, ptr %26, align 8
  br label %27

27:                                               ; preds = %23, %2
  ret void

28:                                               ; preds = %17
  %29 = landingpad { ptr, i32 }
          catch ptr null
  %30 = extractvalue { ptr, i32 } %29, 0
  call void @__clang_call_terminate(ptr %30) #11
  unreachable
}

; Function Attrs: mustprogress nounwind uwtable
define linkonce_odr noundef i64 @_ZNKSt6vectorIN3gmx25AnalysisDataFrameAverager11AverageItemESaIS2_EE4sizeEv(ptr noundef nonnull align 8 dereferenceable(24) %0) #1 comdat align 2 {
  %2 = alloca ptr, align 8
  store ptr %0, ptr %2, align 8
  %3 = load ptr, ptr %2, align 8
  %4 = getelementptr inbounds %"struct.std::_Vector_base", ptr %3, i32 0, i32 0
  %5 = getelementptr inbounds %"struct.std::_Vector_base<gmx::AnalysisDataFrameAverager::AverageItem, std::allocator<gmx::AnalysisDataFrameAverager::AverageItem>>::_Vector_impl_data", ptr %4, i32 0, i32 1
  %6 = load ptr, ptr %5, align 8
  %7 = getelementptr inbounds %"struct.std::_Vector_base", ptr %3, i32 0, i32 0
  %8 = getelementptr inbounds %"struct.std::_Vector_base<gmx::AnalysisDataFrameAverager::AverageItem, std::allocator<gmx::AnalysisDataFrameAverager::AverageItem>>::_Vector_impl_data", ptr %7, i32 0, i32 0
  %9 = load ptr, ptr %8, align 8
  %10 = ptrtoint ptr %6 to i64
  %11 = ptrtoint ptr %9 to i64
  %12 = sub i64 %10, %11
  %13 = sdiv exact i64 %12, 24
  ret i64 %13
}

; Function Attrs: mustprogress nounwind uwtable
define linkonce_odr noundef zeroext i1 @_ZN9__gnu_cxxeqIPKN3gmx25AnalysisDataFrameAverager11AverageItemESt6vectorIS3_SaIS3_EEEEbRKNS_17__normal_iteratorIT_T0_EESE_(ptr noundef nonnull align 8 dereferenceable(8) %0, ptr noundef nonnull align 8 dereferenceable(8) %1) #1 comdat {
  %3 = alloca ptr, align 8
  %4 = alloca ptr, align 8
  store ptr %0, ptr %3, align 8
  store ptr %1, ptr %4, align 8
  %5 = load ptr, ptr %3, align 8
  %6 = call noundef nonnull align 8 dereferenceable(8) ptr @_ZNK9__gnu_cxx17__normal_iteratorIPKN3gmx25AnalysisDataFrameAverager11AverageItemESt6vectorIS3_SaIS3_EEE4baseEv(ptr noundef nonnull align 8 dereferenceable(8) %5) #9
  %7 = load ptr, ptr %6, align 8
  %8 = load ptr, ptr %4, align 8
  %9 = call noundef nonnull align 8 dereferenceable(8) ptr @_ZNK9__gnu_cxx17__normal_iteratorIPKN3gmx25AnalysisDataFrameAverager11AverageItemESt6vectorIS3_SaIS3_EEE4baseEv(ptr noundef nonnull align 8 dereferenceable(8) %8) #9
  %10 = load ptr, ptr %9, align 8
  %11 = icmp eq ptr %7, %10
  ret i1 %11
}

; Function Attrs: mustprogress nounwind uwtable
define linkonce_odr ptr @_ZNKSt6vectorIN3gmx25AnalysisDataFrameAverager11AverageItemESaIS2_EE3endEv(ptr noundef nonnull align 8 dereferenceable(24) %0) #1 comdat align 2 {
  %2 = alloca %"class.__gnu_cxx::__normal_iterator", align 8
  %3 = alloca ptr, align 8
  store ptr %0, ptr %3, align 8
  %4 = load ptr, ptr %3, align 8
  %5 = getelementptr inbounds %"struct.std::_Vector_base", ptr %4, i32 0, i32 0
  %6 = getelementptr inbounds %"struct.std::_Vector_base<gmx::AnalysisDataFrameAverager::AverageItem, std::allocator<gmx::AnalysisDataFrameAverager::AverageItem>>::_Vector_impl_data", ptr %5, i32 0, i32 1
  call void @_ZN9__gnu_cxx17__normal_iteratorIPKN3gmx25AnalysisDataFrameAverager11AverageItemESt6vectorIS3_SaIS3_EEEC2ERKS5_(ptr noundef nonnull align 8 dereferenceable(8) %2, ptr noundef nonnull align 8 dereferenceable(8) %6) #9
  %7 = getelementptr inbounds %"class.__gnu_cxx::__normal_iterator", ptr %2, i32 0, i32 0
  %8 = load ptr, ptr %7, align 8
  ret ptr %8
}

; Function Attrs: mustprogress nounwind uwtable
define linkonce_odr ptr @_ZNKSt6vectorIN3gmx25AnalysisDataFrameAverager11AverageItemESaIS2_EE5beginEv(ptr noundef nonnull align 8 dereferenceable(24) %0) #1 comdat align 2 {
  %2 = alloca %"class.__gnu_cxx::__normal_iterator", align 8
  %3 = alloca ptr, align 8
  store ptr %0, ptr %3, align 8
  %4 = load ptr, ptr %3, align 8
  %5 = getelementptr inbounds %"struct.std::_Vector_base", ptr %4, i32 0, i32 0
  %6 = getelementptr inbounds %"struct.std::_Vector_base<gmx::AnalysisDataFrameAverager::AverageItem, std::allocator<gmx::AnalysisDataFrameAverager::AverageItem>>::_Vector_impl_data", ptr %5, i32 0, i32 0
  call void @_ZN9__gnu_cxx17__normal_iteratorIPKN3gmx25AnalysisDataFrameAverager11AverageItemESt6vectorIS3_SaIS3_EEEC2ERKS5_(ptr noundef nonnull align 8 dereferenceable(8) %2, ptr noundef nonnull align 8 dereferenceable(8) %6) #9
  %7 = getelementptr inbounds %"class.__gnu_cxx::__normal_iterator", ptr %2, i32 0, i32 0
  %8 = load ptr, ptr %7, align 8
  ret ptr %8
}

; Function Attrs: mustprogress uwtable
define linkonce_odr void @_ZNSt6vectorIN3gmx25AnalysisDataFrameAverager11AverageItemESaIS2_EE6resizeEm(ptr noundef nonnull align 8 dereferenceable(24) %0, i64 noundef %1) #0 comdat align 2 {
  %3 = alloca ptr, align 8
  %4 = alloca i64, align 8
  store ptr %0, ptr %3, align 8
  store i64 %1, ptr %4, align 8
  %5 = load ptr, ptr %3, align 8
  %6 = load i64, ptr %4, align 8
  %7 = call noundef i64 @_ZNKSt6vectorIN3gmx25AnalysisDataFrameAverager11AverageItemESaIS2_EE4sizeEv(ptr noundef nonnull align 8 dereferenceable(24) %5) #9
  %8 = icmp ugt i64 %6, %7
  br i1 %8, label %9, label %13

9:                                                ; preds = %2
  %10 = load i64, ptr %4, align 8
  %11 = call noundef i64 @_ZNKSt6vectorIN3gmx25AnalysisDataFrameAverager11AverageItemESaIS2_EE4sizeEv(ptr noundef nonnull align 8 dereferenceable(24) %5) #9
  %12 = sub i64 %10, %11
  call void @_ZNSt6vectorIN3gmx25AnalysisDataFrameAverager11AverageItemESaIS2_EE17_M_default_appendEm(ptr noundef nonnull align 8 dereferenceable(24) %5, i64 noundef %12)
  br label %24

13:                                               ; preds = %2
  %14 = load i64, ptr %4, align 8
  %15 = call noundef i64 @_ZNKSt6vectorIN3gmx25AnalysisDataFrameAverager11AverageItemESaIS2_EE4sizeEv(ptr noundef nonnull align 8 dereferenceable(24) %5) #9
  %16 = icmp ult i64 %14, %15
  br i1 %16, label %17, label %23

17:                                               ; preds = %13
  %18 = getelementptr inbounds %"struct.std::_Vector_base", ptr %5, i32 0, i32 0
  %19 = getelementptr inbounds %"struct.std::_Vector_base<gmx::AnalysisDataFrameAverager::AverageItem, std::allocator<gmx::AnalysisDataFrameAverager::AverageItem>>::_Vector_impl_data", ptr %18, i32 0, i32 0
  %20 = load ptr, ptr %19, align 8
  %21 = load i64, ptr %4, align 8
  %22 = getelementptr inbounds %"struct.gmx::AnalysisDataFrameAverager::AverageItem", ptr %20, i64 %21
  call void @_ZNSt6vectorIN3gmx25AnalysisDataFrameAverager11AverageItemESaIS2_EE15_M_erase_at_endEPS2_(ptr noundef nonnull align 8 dereferenceable(24) %5, ptr noundef %22) #9
  br label %23

23:                                               ; preds = %17, %13
  br label %24

24:                                               ; preds = %23, %9
  ret void
}

; Function Attrs: mustprogress uwtable
define internal void @"_ZZN3gmx25AnalysisDataFrameAverager14setColumnCountEiENK3$_1clEv"(ptr noundef nonnull align 1 dereferenceable(1) %0) #0 align 2 {
  %2 = alloca ptr, align 8
  store ptr %0, ptr %2, align 8
  call void @_ZN3gmx8internal13assertHandlerEPKcS2_S2_S2_i(ptr noundef @.str.3, ptr noundef @.str.4, ptr noundef @"__PRETTY_FUNCTION__._ZZN3gmx25AnalysisDataFrameAverager14setColumnCountEiENK3$_0clEv", ptr noundef @.str.2, i32 noundef 54) #10
  unreachable
}

; Function Attrs: mustprogress nounwind uwtable
define linkonce_odr noundef zeroext i1 @_ZNKSt6vectorIN3gmx25AnalysisDataFrameAverager11AverageItemESaIS2_EE5emptyEv(ptr noundef nonnull align 8 dereferenceable(24) %0) #1 comdat align 2 {
  %2 = alloca ptr, align 8
  %3 = alloca %"class.__gnu_cxx::__normal_iterator", align 8
  %4 = alloca %"class.__gnu_cxx::__normal_iterator", align 8
  store ptr %0, ptr %2, align 8
  %5 = load ptr, ptr %2, align 8
  %6 = call ptr @_ZNKSt6vectorIN3gmx25AnalysisDataFrameAverager11AverageItemESaIS2_EE5beginEv(ptr noundef nonnull align 8 dereferenceable(24) %5) #9
  %7 = getelementptr inbounds %"class.__gnu_cxx::__normal_iterator", ptr %3, i32 0, i32 0
  store ptr %6, ptr %7, align 8
  %8 = call ptr @_ZNKSt6vectorIN3gmx25AnalysisDataFrameAverager11AverageItemESaIS2_EE3endEv(ptr noundef nonnull align 8 dereferenceable(24) %5) #9
  %9 = getelementptr inbounds %"class.__gnu_cxx::__normal_iterator", ptr %4, i32 0, i32 0
  store ptr %8, ptr %9, align 8
  %10 = call noundef zeroext i1 @_ZN9__gnu_cxxeqIPKN3gmx25AnalysisDataFrameAverager11AverageItemESt6vectorIS3_SaIS3_EEEEbRKNS_17__normal_iteratorIT_T0_EESE_(ptr noundef nonnull align 8 dereferenceable(8) %3, ptr noundef nonnull align 8 dereferenceable(8) %4) #9
  ret i1 %10
}

; Function Attrs: mustprogress uwtable
define internal void @"_ZZN3gmx25AnalysisDataFrameAverager14setColumnCountEiENK3$_0clEv"(ptr noundef nonnull align 1 dereferenceable(1) %0) #0 align 2 {
  %2 = alloca ptr, align 8
  store ptr %0, ptr %2, align 8
  call void @_ZN3gmx8internal13assertHandlerEPKcS2_S2_S2_i(ptr noundef @.str, ptr noundef @.str.1, ptr noundef @"__PRETTY_FUNCTION__._ZZN3gmx25AnalysisDataFrameAverager14setColumnCountEiENK3$_0clEv", ptr noundef @.str.2, i32 noundef 53) #10
  unreachable
}

; Function Attrs: mustprogress uwtable
define void @_ZN3gmx25AnalysisDataFrameAverager14setColumnCountEi(ptr noundef nonnull align 8 dereferenceable(25) %0, i32 noundef %1) #0 align 2 {
  %3 = alloca ptr, align 8
  %4 = alloca i32, align 4
  %5 = alloca %class.anon, align 1
  %6 = alloca %class.anon.0, align 1
  store ptr %0, ptr %3, align 8
  store i32 %1, ptr %4, align 4
  %7 = load ptr, ptr %3, align 8
  %8 = load i32, ptr %4, align 4
  %9 = icmp sge i32 %8, 0
  br i1 %9, label %10, label %11

10:                                               ; preds = %2
  br label %12

11:                                               ; preds = %2
  call void @"_ZZN3gmx25AnalysisDataFrameAverager14setColumnCountEiENK3$_0clEv"(ptr noundef nonnull align 1 dereferenceable(1) %5)
  br label %12

12:                                               ; preds = %11, %10
  %13 = getelementptr inbounds %"class.gmx::AnalysisDataFrameAverager", ptr %7, i32 0, i32 0
  %14 = call noundef zeroext i1 @_ZNKSt6vectorIN3gmx25AnalysisDataFrameAverager11AverageItemESaIS2_EE5emptyEv(ptr noundef nonnull align 8 dereferenceable(24) %13) #9
  br i1 %14, label %15, label %16

15:                                               ; preds = %12
  br label %17

16:                                               ; preds = %12
  call void @"_ZZN3gmx25AnalysisDataFrameAverager14setColumnCountEiENK3$_1clEv"(ptr noundef nonnull align 1 dereferenceable(1) %6)
  br label %17

17:                                               ; preds = %16, %15
  %18 = getelementptr inbounds %"class.gmx::AnalysisDataFrameAverager", ptr %7, i32 0, i32 0
  %19 = load i32, ptr %4, align 4
  %20 = sext i32 %19 to i64
  call void @_ZNSt6vectorIN3gmx25AnalysisDataFrameAverager11AverageItemESaIS2_EE6resizeEm(ptr noundef nonnull align 8 dereferenceable(24) %18, i64 noundef %20)
  ret void
}