; Function Attrs: mustprogress uwtable
define void @_ZN3gmx25AnalysisDataFrameAverager14setColumnCountEi(ptr noundef nonnull align 8 dereferenceable(25) %0, i32 noundef %1) local_unnamed_addr #0 align 2 personality ptr @__gxx_personality_v0 {
  %3 = icmp sgt i32 %1, -1
  br i1 %3, label %5, label %4

4:                                                ; preds = %2
  tail call void @_ZN3gmx8internal13assertHandlerEPKcS2_S2_S2_i(ptr noundef nonnull @.str, ptr noundef nonnull @.str.1, ptr noundef nonnull @"__PRETTY_FUNCTION__._ZZN3gmx25AnalysisDataFrameAverager14setColumnCountEiENK3$_0clEv", ptr noundef nonnull @.str.2, i32 noundef 53) #12
  unreachable

5:                                                ; preds = %2
  %6 = load ptr, ptr %0, align 8
  %7 = getelementptr inbounds i8, ptr %0, i64 8
  %8 = load ptr, ptr %7, align 8
  %9 = icmp eq ptr %6, %8
  br i1 %9, label %11, label %10

10:                                               ; preds = %5
  tail call void @_ZN3gmx8internal13assertHandlerEPKcS2_S2_S2_i(ptr noundef nonnull @.str.3, ptr noundef nonnull @.str.4, ptr noundef nonnull @"__PRETTY_FUNCTION__._ZZN3gmx25AnalysisDataFrameAverager14setColumnCountEiENK3$_0clEv", ptr noundef nonnull @.str.2, i32 noundef 54) #12
  unreachable

11:                                               ; preds = %5
  %.not = icmp eq i32 %1, 0
  br i1 %.not, label %_ZNSt6vectorIN3gmx25AnalysisDataFrameAverager11AverageItemESaIS2_EE6resizeEm.exit, label %12

12:                                               ; preds = %11
  %13 = zext nneg i32 %1 to i64
  tail call void @_ZNSt6vectorIN3gmx25AnalysisDataFrameAverager11AverageItemESaIS2_EE17_M_default_appendEm(ptr noundef nonnull align 8 dereferenceable(24) %0, i64 noundef %13)
  br label %_ZNSt6vectorIN3gmx25AnalysisDataFrameAverager11AverageItemESaIS2_EE6resizeEm.exit

_ZNSt6vectorIN3gmx25AnalysisDataFrameAverager11AverageItemESaIS2_EE6resizeEm.exit: ; preds = %11, %12
  ret void
}